; Function Attrs: mustprogress nounwind uwtable
define hidden void @_ZNK13SingletonBlob8print_onEP12outputStream(ptr noundef nonnull align 8 dereferenceable(54) %0, ptr noundef %1) unnamed_addr #1 align 2 {
  %3 = tail call noundef i64 @_ZN9ttyLocker8hold_ttyEv() #10
  %4 = ptrtoint ptr %0 to i64
  tail call void (ptr, ptr, ...) @_ZN12outputStream8print_crEPKcz(ptr noundef nonnull align 8 dereferenceable(56) %1, ptr noundef nonnull @.str.19, i64 noundef %4) #10
  %5 = getelementptr inbounds i8, ptr %0, i64 44
  %6 = load i32, ptr %5, align 4
  tail call void (ptr, ptr, ...) @_ZN12outputStream8print_crEPKcz(ptr noundef nonnull align 8 dereferenceable(56) %1, ptr noundef nonnull @.str.20, i32 noundef %6) #10
  %7 = getelementptr inbounds i8, ptr %0, i64 16
  %8 = load ptr, ptr %7, align 8
  tail call void (ptr, ptr, ...) @_ZN12outputStream8print_crEPKcz(ptr noundef nonnull align 8 dereferenceable(56) %1, ptr noundef nonnull @.str.33, ptr noundef %8) #10
  tail call void @_ZN12Disassembler6decodeEP8CodeBlobP12outputStream(ptr noundef nonnull %0, ptr noundef nonnull %1) #10
  tail call void @_ZN9ttyLocker11release_ttyEl(i64 noundef %3) #10
  ret void
}